target datalayout = "e-m:e-p270:32:32-p271:32:32-p272:64:64-i64:64-i128:128-f80:128-n8:16:32:64-S128"
target triple = "x86_64-pc-linux-gnu"

%struct.MvcManagerStruct = type { ptr, ptr, ptr, ptr }

; Function Attrs: nounwind uwtable
define ptr @Mvc_ManagerStart() #0 {
  %1 = alloca ptr, align 8
  call void @llvm.lifetime.start.p0(i64 8, ptr %1) #6
  %2 = call noalias ptr @malloc(i64 noundef 32) #7
  store ptr %2, ptr %1, align 8, !tbaa !3
  %3 = load ptr, ptr %1, align 8, !tbaa !3
  call void @llvm.memset.p0.i64(ptr align 8 %3, i8 0, i64 32, i1 false)
  %4 = call ptr @Extra_MmFixedStart(i32 noundef 24)
  %5 = load ptr, ptr %1, align 8, !tbaa !3
  %6 = getelementptr inbounds nuw %struct.MvcManagerStruct, ptr %5, i32 0, i32 1
  store ptr %4, ptr %6, align 8, !tbaa !8
  %7 = call ptr @Extra_MmFixedStart(i32 noundef 28)
  %8 = load ptr, ptr %1, align 8, !tbaa !3
  %9 = getelementptr inbounds nuw %struct.MvcManagerStruct, ptr %8, i32 0, i32 2
  store ptr %7, ptr %9, align 8, !tbaa !11
  %10 = call ptr @Extra_MmFixedStart(i32 noundef 36)
  %11 = load ptr, ptr %1, align 8, !tbaa !3
  %12 = getelementptr inbounds nuw %struct.MvcManagerStruct, ptr %11, i32 0, i32 3
  store ptr %10, ptr %12, align 8, !tbaa !12
  %13 = call ptr @Extra_MmFixedStart(i32 noundef 80)
  %14 = load ptr, ptr %1, align 8, !tbaa !3
  %15 = getelementptr inbounds nuw %struct.MvcManagerStruct, ptr %14, i32 0, i32 0
  store ptr %13, ptr %15, align 8, !tbaa !13
  %16 = load ptr, ptr %1, align 8, !tbaa !3
  call void @llvm.lifetime.end.p0(i64 8, ptr %1) #6
  ret ptr %16
}

; Function Attrs: nocallback nofree nosync nounwind willreturn memory(argmem: readwrite)
declare void @llvm.lifetime.start.p0(i64 immarg, ptr captures(none)) #1

; Function Attrs: nounwind allocsize(0)
declare noalias ptr @malloc(i64 noundef) #2

; Function Attrs: nocallback nofree nounwind willreturn memory(argmem: write)
declare void @llvm.memset.p0.i64(ptr writeonly captures(none), i8, i64, i1 immarg) #3

declare ptr @Extra_MmFixedStart(i32 noundef) #4

; Function Attrs: nocallback nofree nosync nounwind willreturn memory(argmem: readwrite)
declare void @llvm.lifetime.end.p0(i64 immarg, ptr captures(none)) #1

; Function Attrs: nounwind uwtable
define void @Mvc_ManagerFree(ptr noundef %0) #0 {
  %2 = alloca ptr, align 8
  store ptr %0, ptr %2, align 8, !tbaa !3
  %3 = load ptr, ptr %2, align 8, !tbaa !3
  %4 = getelementptr inbounds nuw %struct.MvcManagerStruct, ptr %3, i32 0, i32 1
  %5 = load ptr, ptr %4, align 8, !tbaa !8
  call void @Extra_MmFixedStop(ptr noundef %5)
  %6 = load ptr, ptr %2, align 8, !tbaa !3
  %7 = getelementptr inbounds nuw %struct.MvcManagerStruct, ptr %6, i32 0, i32 2
  %8 = load ptr, ptr %7, align 8, !tbaa !11
  call void @Extra_MmFixedStop(ptr noundef %8)
  %9 = load ptr, ptr %2, align 8, !tbaa !3
  %10 = getelementptr inbounds nuw %struct.MvcManagerStruct, ptr %9, i32 0, i32 3
  %11 = load ptr, ptr %10, align 8, !tbaa !12
  call void @Extra_MmFixedStop(ptr noundef %11)
  %12 = load ptr, ptr %2, align 8, !tbaa !3
  %13 = getelementptr inbounds nuw %struct.MvcManagerStruct, ptr %12, i32 0, i32 0
  %14 = load ptr, ptr %13, align 8, !tbaa !13
  call void @Extra_MmFixedStop(ptr noundef %14)
  %15 = load ptr, ptr %2, align 8, !tbaa !3
  %16 = icmp ne ptr %15, null
  br i1 %16, label %17, label %19

17:                                               ; preds = %1
  %18 = load ptr, ptr %2, align 8, !tbaa !3
  call void @free(ptr noundef %18) #6
  store ptr null, ptr %2, align 8, !tbaa !3
  br label %20

19:                                               ; preds = %1
  br label %20

20:                                               ; preds = %19, %17
  ret void
}

declare void @Extra_MmFixedStop(ptr noundef) #4

; Function Attrs: nounwind
declare void @free(ptr noundef) #5


!llvm.module.flags = !{!0, !1, !2}

!0 = !{i32 1, !"wchar_size", i32 4}
!1 = !{i32 8, !"PIC Level", i32 2}
!2 = !{i32 7, !"uwtable", i32 2}
!3 = !{!4, !4, i64 0}
!4 = !{!"p1 _ZTS16MvcManagerStruct", !5, i64 0}
!5 = !{!"any pointer", !6, i64 0}
!6 = !{!"omnipotent char", !7, i64 0}
!7 = !{!"Simple C/C++ TBAA"}
!8 = !{!9, !10, i64 8}
!9 = !{!"MvcManagerStruct", !10, i64 0, !10, i64 8, !10, i64 16, !10, i64 24}
!10 = !{!"p1 _ZTS16Extra_MmFixed_t_", !5, i64 0}
!11 = !{!9, !10, i64 16}
!12 = !{!9, !10, i64 24}
!13 = !{!9, !10, i64 0}
